target datalayout = "e-m:e-p270:32:32-p271:32:32-p272:64:64-i64:64-i128:128-f80:128-n8:16:32:64-S128"
target triple = "x86_64-unknown-linux-gnu"

%class.symbol = type { ptr }
%"class.datalog::rule_manager" = type { ptr, ptr, %"class.datalog::rule_counter", %class.used_vars, %class.uint_set, %class.expr_free_vars, %class.ref_vector, %class.obj_ref, %class.ref_vector.11, %class.svector.14, %class.hnf, %class.qe_lite, %class.label_rewriter, %"struct.datalog::uninterpreted_function_finder_proc", %"struct.datalog::quantifier_finder_proc", [5 x i8], %class.expr_sparse_mark, %"struct.datalog::fd_finder_proc" }
%"class.datalog::rule_counter" = type { %class.var_counter }
%class.var_counter = type { %class.counter, %class.ast_fast_mark, %class.expr_free_vars, %class.ptr_vector.2, %class.svector }
%class.counter = type { %class.u_map }
%class.u_map = type { %class.map }
%class.map = type { %class.table2map }
%class.table2map = type { %class.core_hashtable }
%class.core_hashtable = type <{ ptr, i32, i32, i32, [4 x i8] }>
%class.ast_fast_mark = type { %class.ptr_buffer }
%class.ptr_buffer = type { %class.buffer }
%class.buffer = type { ptr, i32, i32, [16 x %"union.std::aligned_storage<8, 8>::type"] }
%"union.std::aligned_storage<8, 8>::type" = type { [8 x i8] }
%class.ptr_vector.2 = type { %class.vector.3 }
%class.vector.3 = type { ptr }
%class.svector = type { %class.vector.4 }
%class.vector.4 = type { ptr }
%class.used_vars = type { %class.ptr_vector, %class.hashtable, %class.svector.7, i32, i32 }
%class.ptr_vector = type { %class.vector }
%class.vector = type { ptr }
%class.hashtable = type { %class.core_hashtable.base.6, [4 x i8] }
%class.core_hashtable.base.6 = type <{ ptr, i32, i32, i32 }>
%class.svector.7 = type { %class.vector.8 }
%class.vector.8 = type { ptr }
%class.uint_set = type { %class.svector }
%class.expr_free_vars = type { %class.expr_sparse_mark, %class.ptr_vector, %class.ptr_vector.2 }
%class.ref_vector = type { %class.ref_vector_core }
%class.ref_vector_core = type { %class.ref_manager_wrapper, %class.ptr_vector.9 }
%class.ref_manager_wrapper = type { ptr }
%class.ptr_vector.9 = type { %class.vector.10 }
%class.vector.10 = type { ptr }
%class.obj_ref = type { ptr, ptr }
%class.ref_vector.11 = type { %class.ref_vector_core.12 }
%class.ref_vector_core.12 = type { %class.ref_manager_wrapper.13, %class.ptr_vector.2 }
%class.ref_manager_wrapper.13 = type { ptr }
%class.svector.14 = type { %class.vector.15 }
%class.vector.15 = type { ptr }
%class.hnf = type { ptr }
%class.qe_lite = type { ptr }
%class.label_rewriter = type { i32, %class.rewriter_tpl }
%class.rewriter_tpl = type { %class.rewriter_core, ptr, i32, %class.ptr_vector.2, %class.var_shifter, %class.inv_var_shifter, %class.obj_ref.22, %class.obj_ref, %class.obj_ref, %class.svector }
%class.rewriter_core = type { ptr, ptr, i8, i8, %class.ptr_vector.16, ptr, %class.svector.18, %class.ref_vector.11, %class.ptr_vector.16, ptr, %class.ref_vector, %class.obj_hashtable, ptr, i32, %class.svector.20 }
%class.svector.18 = type { %class.vector.19 }
%class.vector.19 = type { ptr }
%class.ptr_vector.16 = type { %class.vector.17 }
%class.vector.17 = type { ptr }
%class.obj_hashtable = type { %class.core_hashtable.base.1, [4 x i8] }
%class.core_hashtable.base.1 = type <{ ptr, i32, i32, i32 }>
%class.svector.20 = type { %class.vector.21 }
%class.vector.21 = type { ptr }
%class.var_shifter = type <{ %class.var_shifter_core, i32, i32, i32, [4 x i8] }>
%class.var_shifter_core = type { %class.rewriter_core }
%class.inv_var_shifter = type <{ %class.var_shifter_core, i32, [4 x i8] }>
%class.obj_ref.22 = type { ptr, ptr }
%"struct.datalog::uninterpreted_function_finder_proc" = type { ptr, %"class.datatype::util", %"class.datalog::dl_decl_util", i8, ptr }
%"class.datatype::util" = type { ptr, i32, ptr, %class.obj_map, %class.obj_map.27, %class.obj_map.32, %class.obj_map.37, %class.obj_map.37, %class.obj_map.37, %class.obj_map.42, %class.obj_map.42, %class.obj_map.42, %class.ref_vector.47, %class.ref_vector_core.52, %class.ptr_vector.55, i32, %class.ptr_vector }
%class.obj_map = type { %class.core_hashtable.23 }
%class.core_hashtable.23 = type <{ ptr, i32, i32, i32, [4 x i8] }>
%class.obj_map.27 = type { %class.core_hashtable.28 }
%class.core_hashtable.28 = type <{ ptr, i32, i32, i32, [4 x i8] }>
%class.obj_map.32 = type { %class.core_hashtable.33 }
%class.core_hashtable.33 = type <{ ptr, i32, i32, i32, [4 x i8] }>
%class.obj_map.37 = type { %class.core_hashtable.38 }
%class.core_hashtable.38 = type <{ ptr, i32, i32, i32, [4 x i8] }>
%class.obj_map.42 = type { %class.core_hashtable.43 }
%class.core_hashtable.43 = type <{ ptr, i32, i32, i32, [4 x i8] }>
%class.ref_vector.47 = type { %class.ref_vector_core.48 }
%class.ref_vector_core.48 = type { %class.ref_manager_wrapper.49, %class.ptr_vector.50 }
%class.ref_manager_wrapper.49 = type { ptr }
%class.ptr_vector.50 = type { %class.vector.51 }
%class.vector.51 = type { ptr }
%class.ref_vector_core.52 = type { %class.ptr_vector.53 }
%class.ptr_vector.53 = type { %class.vector.54 }
%class.vector.54 = type { ptr }
%class.ptr_vector.55 = type { %class.vector.56 }
%class.vector.56 = type { ptr }
%"class.datalog::dl_decl_util" = type <{ ptr, %class.scoped_ptr, %class.scoped_ptr.57, i32, [4 x i8] }>
%class.scoped_ptr = type { ptr }
%class.scoped_ptr.57 = type { ptr }
%"struct.datalog::quantifier_finder_proc" = type { i8, i8, i8 }
%class.expr_sparse_mark = type { %class.obj_hashtable }
%"struct.datalog::fd_finder_proc" = type <{ ptr, %class.bv_util, i8, [7 x i8] }>
%class.bv_util = type { %class.bv_recognizers, ptr, ptr }
%class.bv_recognizers = type { i32 }
%class.svector.85 = type { %class.vector.86 }
%class.vector.86 = type { ptr }
%"class.datalog::rule" = type { %"class.datalog::accounted_object.base", ptr, ptr, i32, i32, i32, i32, %class.symbol, [0 x ptr] }
%"class.datalog::accounted_object.base" = type <{ ptr, ptr, %"struct.datalog::costs", %"struct.datalog::costs", i8 }>
%"struct.datalog::costs" = type { i32, i32 }
%class.ast = type { i32, i24, i32, i32 }
%class.ast_manager = type { %class.reslimit, %class.small_object_allocator, %class.family_manager, %class.parray_manager, %class.dependency_manager, %class.parray_manager.142, %class.ptr_vector.145, i32, i8, %class.ast_table, %class.obj_map.148, %class.id_gen, %class.id_gen, ptr, ptr, ptr, ptr, ptr, i32, i8, [3 x i8], %class.u_map.153, ptr, i8, i8, ptr, %class.symbol, %class.obj_map.37, ptr }
%class.reslimit = type { %"struct.std::atomic", i8, i64, i64, %class.svector.129, %class.ptr_vector.131 }
%"struct.std::atomic" = type { %"struct.std::__atomic_base" }
%"struct.std::__atomic_base" = type { i32 }
%class.svector.129 = type { %class.vector.130 }
%class.vector.130 = type { ptr }
%class.ptr_vector.131 = type { %class.vector.132 }
%class.vector.132 = type { ptr }
%class.small_object_allocator = type { [32 x ptr], [32 x ptr], i64 }
%class.family_manager = type { i32, %class.symbol_table, %class.svector.85 }
%class.symbol_table = type { %class.core_hashtable.133, %class.vector.135, %class.svector.136 }
%class.core_hashtable.133 = type <{ ptr, i32, i32, i32, [4 x i8] }>
%class.vector.135 = type { ptr }
%class.svector.136 = type { %class.vector.137 }
%class.vector.137 = type { ptr }
%class.parray_manager = type { ptr, ptr, %class.ptr_vector.138, %class.ptr_vector.138 }
%class.ptr_vector.138 = type { %class.vector.139 }
%class.vector.139 = type { ptr }
%class.dependency_manager = type { ptr, ptr, %class.ptr_vector.140 }
%class.ptr_vector.140 = type { %class.vector.141 }
%class.vector.141 = type { ptr }
%class.parray_manager.142 = type { ptr, ptr, %class.ptr_vector.143, %class.ptr_vector.143 }
%class.ptr_vector.143 = type { %class.vector.144 }
%class.vector.144 = type { ptr }
%class.ptr_vector.145 = type { %class.vector.146 }
%class.vector.146 = type { ptr }
%class.ast_table = type { %class.chashtable }
%class.chashtable = type { ptr, i32, i32, i32, i32, i32, i32, i32, ptr, ptr, ptr }
%class.obj_map.148 = type { %class.core_hashtable.149 }
%class.core_hashtable.149 = type <{ ptr, i32, i32, i32, [4 x i8] }>
%class.id_gen = type { i32, %class.svector }
%class.u_map.153 = type { %class.map.154 }
%class.map.154 = type { %class.table2map.155 }
%class.table2map.155 = type { %class.core_hashtable.156 }
%class.core_hashtable.156 = type <{ ptr, i32, i32, i32, [4 x i8] }>
%"class.datalog::accounted_object" = type <{ ptr, ptr, %"struct.datalog::costs", %"struct.datalog::costs", i8, [7 x i8] }>

@_ZN6symbol4nullE = external global %class.symbol, align 8

; Function Attrs: mustprogress nounwind uwtable
define linkonce_odr hidden void @_ZN3ast7inc_refEv(ptr noundef nonnull align 4 dereferenceable(16) %this) #5 comdat align 2 {
entry:
  %this.addr = alloca ptr, align 8
  store ptr %this, ptr %this.addr, align 8
  %this1 = load ptr, ptr %this.addr, align 8
  %m_ref_count = getelementptr inbounds %class.ast, ptr %this1, i32 0, i32 2
  %0 = load i32, ptr %m_ref_count, align 4
  %inc = add i32 %0, 1
  store i32 %inc, ptr %m_ref_count, align 4
  ret void
}

; Function Attrs: mustprogress uwtable
define linkonce_odr hidden void @_ZN7datalog16accounted_objectC2Ev(ptr noundef nonnull align 8 dereferenceable(33) %this) unnamed_addr #4 comdat align 2 {
entry:
  %this.addr = alloca ptr, align 8
  store ptr %this, ptr %this.addr, align 8
  %this1 = load ptr, ptr %this.addr, align 8
  %m_context = getelementptr inbounds %"class.datalog::accounted_object", ptr %this1, i32 0, i32 0
  store ptr null, ptr %m_context, align 8
  %m_parent_object = getelementptr inbounds %"class.datalog::accounted_object", ptr %this1, i32 0, i32 1
  store ptr null, ptr %m_parent_object, align 8
  %m_current_cost = getelementptr inbounds %"class.datalog::accounted_object", ptr %this1, i32 0, i32 2
  call void @_ZN7datalog5costsC1Ev(ptr noundef nonnull align 4 dereferenceable(8) %m_current_cost)
  %m_processed_cost = getelementptr inbounds %"class.datalog::accounted_object", ptr %this1, i32 0, i32 3
  call void @_ZN7datalog5costsC1Ev(ptr noundef nonnull align 4 dereferenceable(8) %m_processed_cost)
  %m_being_recorded = getelementptr inbounds %"class.datalog::accounted_object", ptr %this1, i32 0, i32 4
  store i8 0, ptr %m_being_recorded, align 8
  ret void
}

; Function Attrs: mustprogress nounwind uwtable
define linkonce_odr hidden noundef ptr @_ZNK7datalog4rule8get_tailEj(ptr noundef nonnull align 8 dereferenceable(80) %this, i32 noundef %i) #5 comdat align 2 {
entry:
  %this.addr = alloca ptr, align 8
  %i.addr = alloca i32, align 4
  store ptr %this, ptr %this.addr, align 8
  store i32 %i, ptr %i.addr, align 4
  %this1 = load ptr, ptr %this.addr, align 8
  %m_tail = getelementptr inbounds %"class.datalog::rule", ptr %this1, i32 0, i32 8
  %0 = load i32, ptr %i.addr, align 4
  %idxprom = zext i32 %0 to i64
  %arrayidx = getelementptr inbounds [0 x ptr], ptr %m_tail, i64 0, i64 %idxprom
  %1 = load ptr, ptr %arrayidx, align 8
  %2 = ptrtoint ptr %1 to i64
  %and = and i64 %2, -8
  %3 = inttoptr i64 %and to ptr
  ret ptr %3
}

; Function Attrs: mustprogress uwtable
define linkonce_odr hidden void @_ZN11ast_manager7inc_refEP3ast(ptr noundef nonnull align 8 dereferenceable(976) %this, ptr noundef %n) #4 comdat align 2 {
entry:
  %this.addr = alloca ptr, align 8
  %n.addr = alloca ptr, align 8
  store ptr %this, ptr %this.addr, align 8
  store ptr %n, ptr %n.addr, align 8
  %0 = load ptr, ptr %n.addr, align 8
  %tobool = icmp ne ptr %0, null
  br i1 %tobool, label %if.then, label %if.end

if.then:                                          ; preds = %entry
  %1 = load ptr, ptr %n.addr, align 8
  call void @_ZN3ast7inc_refEv(ptr noundef nonnull align 4 dereferenceable(16) %1)
  br label %if.end

if.end:                                           ; preds = %if.then, %entry
  ret void
}

; Function Attrs: mustprogress uwtable
define linkonce_odr hidden void @_ZN7datalog4ruleC2Ev(ptr noundef nonnull align 8 dereferenceable(80) %this) unnamed_addr #4 comdat align 2 {
entry:
  %this.addr = alloca ptr, align 8
  store ptr %this, ptr %this.addr, align 8
  %this1 = load ptr, ptr %this.addr, align 8
  call void @_ZN7datalog16accounted_objectC2Ev(ptr noundef nonnull align 8 dereferenceable(33) %this1)
  %m_head = getelementptr inbounds %"class.datalog::rule", ptr %this1, i32 0, i32 1
  store ptr null, ptr %m_head, align 8
  %m_proof = getelementptr inbounds %"class.datalog::rule", ptr %this1, i32 0, i32 2
  store ptr null, ptr %m_proof, align 8
  %m_tail_size = getelementptr inbounds %"class.datalog::rule", ptr %this1, i32 0, i32 3
  store i32 0, ptr %m_tail_size, align 8
  %m_ref_cnt = getelementptr inbounds %"class.datalog::rule", ptr %this1, i32 0, i32 4
  store i32 0, ptr %m_ref_cnt, align 4
  %m_positive_cnt = getelementptr inbounds %"class.datalog::rule", ptr %this1, i32 0, i32 5
  store i32 0, ptr %m_positive_cnt, align 8
  %m_uninterp_cnt = getelementptr inbounds %"class.datalog::rule", ptr %this1, i32 0, i32 6
  store i32 0, ptr %m_uninterp_cnt, align 4
  %m_name = getelementptr inbounds %"class.datalog::rule", ptr %this1, i32 0, i32 7
  call void @llvm.memcpy.p0.p0.i64(ptr align 8 %m_name, ptr align 8 @_ZN6symbol4nullE, i64 8, i1 false)
  ret void
}

; Function Attrs: mustprogress nounwind uwtable
define linkonce_odr hidden noundef nonnull align 8 dereferenceable(520) ptr @_ZN11ast_manager13get_allocatorEv(ptr noundef nonnull align 8 dereferenceable(976) %this) #5 comdat align 2 {
entry:
  %this.addr = alloca ptr, align 8
  store ptr %this, ptr %this.addr, align 8
  %this1 = load ptr, ptr %this.addr, align 8
  %m_alloc = getelementptr inbounds %class.ast_manager, ptr %this1, i32 0, i32 1
  ret ptr %m_alloc
}

; Function Attrs: mustprogress nounwind uwtable
define linkonce_odr hidden noundef i32 @_ZN7datalog4rule12get_obj_sizeEj(i32 noundef %n) #5 comdat align 2 {
entry:
  %n.addr = alloca i32, align 4
  store i32 %n, ptr %n.addr, align 4
  %0 = load i32, ptr %n.addr, align 4
  %conv = zext i32 %0 to i64
  %mul = mul i64 %conv, 8
  %add = add i64 80, %mul
  %conv1 = trunc i64 %add to i32
  ret i32 %conv1
}

; Function Attrs: mustprogress nounwind uwtable
define linkonce_odr hidden noundef i32 @_ZNK7datalog4rule13get_tail_sizeEv(ptr noundef nonnull align 8 dereferenceable(80) %this) #5 comdat align 2 {
entry:
  %this.addr = alloca ptr, align 8
  store ptr %this, ptr %this.addr, align 8
  %this1 = load ptr, ptr %this.addr, align 8
  %m_tail_size = getelementptr inbounds %"class.datalog::rule", ptr %this1, i32 0, i32 3
  %0 = load i32, ptr %m_tail_size, align 8
  ret i32 %0
}

; Function Attrs: mustprogress uwtable
define hidden noundef ptr @_ZN7datalog12rule_manager2mkEPKNS_4ruleEP3appRK6symbol(ptr noundef nonnull align 8 dereferenceable(1368) %this, ptr noundef %source, ptr noundef %new_head, ptr noundef nonnull align 8 dereferenceable(8) %name) #4 align 2 {
entry:
  %this.addr = alloca ptr, align 8
  %source.addr = alloca ptr, align 8
  %new_head.addr = alloca ptr, align 8
  %name.addr = alloca ptr, align 8
  %n = alloca i32, align 4
  %sz = alloca i32, align 4
  %mem = alloca ptr, align 8
  %r = alloca ptr, align 8
  %i = alloca i32, align 4
  store ptr %this, ptr %this.addr, align 8
  store ptr %source, ptr %source.addr, align 8
  store ptr %new_head, ptr %new_head.addr, align 8
  store ptr %name, ptr %name.addr, align 8
  %this1 = load ptr, ptr %this.addr, align 8
  %0 = load ptr, ptr %source.addr, align 8
  %call = call noundef i32 @_ZNK7datalog4rule13get_tail_sizeEv(ptr noundef nonnull align 8 dereferenceable(80) %0)
  store i32 %call, ptr %n, align 4
  %1 = load i32, ptr %n, align 4
  %call2 = call noundef i32 @_ZN7datalog4rule12get_obj_sizeEj(i32 noundef %1)
  store i32 %call2, ptr %sz, align 4
  %m = getelementptr inbounds %"class.datalog::rule_manager", ptr %this1, i32 0, i32 0
  %2 = load ptr, ptr %m, align 8
  %call3 = call noundef nonnull align 8 dereferenceable(520) ptr @_ZN11ast_manager13get_allocatorEv(ptr noundef nonnull align 8 dereferenceable(976) %2)
  %3 = load i32, ptr %sz, align 4
  %conv = zext i32 %3 to i64
  %call4 = call noundef ptr @_ZN22small_object_allocator8allocateEm(ptr noundef nonnull align 8 dereferenceable(520) %call3, i64 noundef %conv)
  store ptr %call4, ptr %mem, align 8
  %4 = load ptr, ptr %mem, align 8
  call void @_ZN7datalog4ruleC2Ev(ptr noundef nonnull align 8 dereferenceable(80) %4)
  store ptr %4, ptr %r, align 8
  %5 = load ptr, ptr %new_head.addr, align 8
  %6 = load ptr, ptr %r, align 8
  %m_head = getelementptr inbounds %"class.datalog::rule", ptr %6, i32 0, i32 1
  store ptr %5, ptr %m_head, align 8
  %7 = load ptr, ptr %name.addr, align 8
  %8 = load ptr, ptr %r, align 8
  %m_name = getelementptr inbounds %"class.datalog::rule", ptr %8, i32 0, i32 7
  call void @llvm.memcpy.p0.p0.i64(ptr align 8 %m_name, ptr align 8 %7, i64 8, i1 false)
  %9 = load i32, ptr %n, align 4
  %10 = load ptr, ptr %r, align 8
  %m_tail_size = getelementptr inbounds %"class.datalog::rule", ptr %10, i32 0, i32 3
  store i32 %9, ptr %m_tail_size, align 8
  %11 = load ptr, ptr %source.addr, align 8
  %m_positive_cnt = getelementptr inbounds %"class.datalog::rule", ptr %11, i32 0, i32 5
  %12 = load i32, ptr %m_positive_cnt, align 8
  %13 = load ptr, ptr %r, align 8
  %m_positive_cnt5 = getelementptr inbounds %"class.datalog::rule", ptr %13, i32 0, i32 5
  store i32 %12, ptr %m_positive_cnt5, align 8
  %14 = load ptr, ptr %source.addr, align 8
  %m_uninterp_cnt = getelementptr inbounds %"class.datalog::rule", ptr %14, i32 0, i32 6
  %15 = load i32, ptr %m_uninterp_cnt, align 4
  %16 = load ptr, ptr %r, align 8
  %m_uninterp_cnt6 = getelementptr inbounds %"class.datalog::rule", ptr %16, i32 0, i32 6
  store i32 %15, ptr %m_uninterp_cnt6, align 4
  %17 = load ptr, ptr %r, align 8
  %m_proof = getelementptr inbounds %"class.datalog::rule", ptr %17, i32 0, i32 2
  store ptr null, ptr %m_proof, align 8
  %m7 = getelementptr inbounds %"class.datalog::rule_manager", ptr %this1, i32 0, i32 0
  %18 = load ptr, ptr %m7, align 8
  %19 = load ptr, ptr %r, align 8
  %m_head8 = getelementptr inbounds %"class.datalog::rule", ptr %19, i32 0, i32 1
  %20 = load ptr, ptr %m_head8, align 8
  call void @_ZN11ast_manager7inc_refEP3ast(ptr noundef nonnull align 8 dereferenceable(976) %18, ptr noundef %20)
  store i32 0, ptr %i, align 4
  br label %for.cond

for.cond:                                         ; preds = %for.inc, %entry
  %21 = load i32, ptr %i, align 4
  %22 = load i32, ptr %n, align 4
  %cmp = icmp ult i32 %21, %22
  br i1 %cmp, label %for.body, label %for.end

for.body:                                         ; preds = %for.cond
  %23 = load ptr, ptr %source.addr, align 8
  %m_tail = getelementptr inbounds %"class.datalog::rule", ptr %23, i32 0, i32 8
  %24 = load i32, ptr %i, align 4
  %idxprom = zext i32 %24 to i64
  %arrayidx = getelementptr inbounds [0 x ptr], ptr %m_tail, i64 0, i64 %idxprom
  %25 = load ptr, ptr %arrayidx, align 8
  %26 = load ptr, ptr %r, align 8
  %m_tail9 = getelementptr inbounds %"class.datalog::rule", ptr %26, i32 0, i32 8
  %27 = load i32, ptr %i, align 4
  %idxprom10 = zext i32 %27 to i64
  %arrayidx11 = getelementptr inbounds [0 x ptr], ptr %m_tail9, i64 0, i64 %idxprom10
  store ptr %25, ptr %arrayidx11, align 8
  %m12 = getelementptr inbounds %"class.datalog::rule_manager", ptr %this1, i32 0, i32 0
  %28 = load ptr, ptr %m12, align 8
  %29 = load ptr, ptr %r, align 8
  %30 = load i32, ptr %i, align 4
  %call13 = call noundef ptr @_ZNK7datalog4rule8get_tailEj(ptr noundef nonnull align 8 dereferenceable(80) %29, i32 noundef %30)
  call void @_ZN11ast_manager7inc_refEP3ast(ptr noundef nonnull align 8 dereferenceable(976) %28, ptr noundef %call13)
  br label %for.inc

for.inc:                                          ; preds = %for.body
  %31 = load i32, ptr %i, align 4
  %inc = add i32 %31, 1
  store i32 %inc, ptr %i, align 4
  br label %for.cond, !llvm.loop !37

for.end:                                          ; preds = %for.cond
  %32 = load ptr, ptr %r, align 8
  ret ptr %32
}

; Function Attrs: mustprogress nounwind uwtable
define linkonce_odr hidden noundef ptr @_ZNK7datalog4rule8get_headEv(ptr noundef nonnull align 8 dereferenceable(80) %this) #5 comdat align 2 {
entry:
  %this.addr = alloca ptr, align 8
  store ptr %this, ptr %this.addr, align 8
  %this1 = load ptr, ptr %this.addr, align 8
  %m_head = getelementptr inbounds %"class.datalog::rule", ptr %this1, i32 0, i32 1
  %0 = load ptr, ptr %m_head, align 8
  ret ptr %0
}

; Function Attrs: mustprogress uwtable
define hidden noundef ptr @_ZN7datalog12rule_manager2mkEPKNS_4ruleERK6symbol(ptr noundef nonnull align 8 dereferenceable(1368) %this, ptr noundef %source, ptr noundef nonnull align 8 dereferenceable(8) %name) #4 align 2 {
entry:
  %this.addr = alloca ptr, align 8
  %source.addr = alloca ptr, align 8
  %name.addr = alloca ptr, align 8
  store ptr %this, ptr %this.addr, align 8
  store ptr %source, ptr %source.addr, align 8
  store ptr %name, ptr %name.addr, align 8
  %this1 = load ptr, ptr %this.addr, align 8
  %0 = load ptr, ptr %source.addr, align 8
  %1 = load ptr, ptr %source.addr, align 8
  %call = call noundef ptr @_ZNK7datalog4rule8get_headEv(ptr noundef nonnull align 8 dereferenceable(80) %1)
  %2 = load ptr, ptr %name.addr, align 8
  %call2 = call noundef ptr @_ZN7datalog12rule_manager2mkEPKNS_4ruleEP3appRK6symbol(ptr noundef nonnull align 8 dereferenceable(1368) %this1, ptr noundef %0, ptr noundef %call, ptr noundef nonnull align 8 dereferenceable(8) %2)
  ret ptr %call2
}