; Function Attrs: mustprogress uwtable
define hidden noundef ptr @_ZN7datalog12rule_manager2mkEPKNS_4ruleERK6symbol(ptr nocapture noundef nonnull readonly align 8 dereferenceable(1368) %this, ptr nocapture noundef readonly %source, ptr nocapture noundef nonnull readonly align 8 dereferenceable(8) %name) local_unnamed_addr #3 align 2 {
entry:
  %m_head.i = getelementptr inbounds i8, ptr %source, i64 40
  %0 = load ptr, ptr %m_head.i, align 8
  %m_tail_size.i.i = getelementptr inbounds i8, ptr %source, i64 56
  %1 = load i32, ptr %m_tail_size.i.i, align 8
  %mul.i.i = shl i32 %1, 3
  %add.i.i = add i32 %mul.i.i, 80
  %2 = load ptr, ptr %this, align 8
  %m_alloc.i.i = getelementptr inbounds i8, ptr %2, i64 40
  %conv.i = zext i32 %add.i.i to i64
  %call4.i = tail call noundef ptr @_ZN22small_object_allocator8allocateEm(ptr noundef nonnull align 8 dereferenceable(520) %m_alloc.i.i, i64 noundef %conv.i)
  %m_current_cost.i.i.i = getelementptr inbounds i8, ptr %call4.i, i64 16
  tail call void @llvm.memset.p0.i64(ptr noundef nonnull align 8 dereferenceable(16) %call4.i, i8 0, i64 16, i1 false)
  tail call void @_ZN7datalog5costsC1Ev(ptr noundef nonnull align 4 dereferenceable(8) %m_current_cost.i.i.i)
  %m_processed_cost.i.i.i = getelementptr inbounds i8, ptr %call4.i, i64 24
  tail call void @_ZN7datalog5costsC1Ev(ptr noundef nonnull align 4 dereferenceable(8) %m_processed_cost.i.i.i)
  %m_being_recorded.i.i.i = getelementptr inbounds i8, ptr %call4.i, i64 32
  store i8 0, ptr %m_being_recorded.i.i.i, align 8
  %m_head.i.i = getelementptr inbounds i8, ptr %call4.i, i64 40
  %m_name.i.i = getelementptr inbounds i8, ptr %call4.i, i64 72
  %3 = getelementptr inbounds i8, ptr %call4.i, i64 48
  tail call void @llvm.memset.p0.i64(ptr noundef nonnull align 8 dereferenceable(32) %3, i8 0, i64 24, i1 false)
  %4 = load i64, ptr @_ZN6symbol4nullE, align 8
  store i64 %4, ptr %m_name.i.i, align 8
  store ptr %0, ptr %m_head.i.i, align 8
  %5 = load i64, ptr %name, align 8
  store i64 %5, ptr %m_name.i.i, align 8
  %m_tail_size.i = getelementptr inbounds i8, ptr %call4.i, i64 56
  store i32 %1, ptr %m_tail_size.i, align 8
  %m_positive_cnt.i = getelementptr inbounds i8, ptr %source, i64 64
  %6 = load i32, ptr %m_positive_cnt.i, align 8
  %m_positive_cnt5.i = getelementptr inbounds i8, ptr %call4.i, i64 64
  store i32 %6, ptr %m_positive_cnt5.i, align 8
  %m_uninterp_cnt.i = getelementptr inbounds i8, ptr %source, i64 68
  %7 = load i32, ptr %m_uninterp_cnt.i, align 4
  %m_uninterp_cnt6.i = getelementptr inbounds i8, ptr %call4.i, i64 68
  store i32 %7, ptr %m_uninterp_cnt6.i, align 4
  store ptr null, ptr %3, align 8
  %tobool.not.i.i = icmp eq ptr %0, null
  br i1 %tobool.not.i.i, label %_ZN11ast_manager7inc_refEP3ast.exit.i, label %if.then.i.i

if.then.i.i:                                      ; preds = %entry
  %m_ref_count.i.i.i = getelementptr inbounds i8, ptr %0, i64 8
  %8 = load i32, ptr %m_ref_count.i.i.i, align 4
  %inc.i.i.i = add i32 %8, 1
  store i32 %inc.i.i.i, ptr %m_ref_count.i.i.i, align 4
  br label %_ZN11ast_manager7inc_refEP3ast.exit.i

_ZN11ast_manager7inc_refEP3ast.exit.i:            ; preds = %if.then.i.i, %entry
  %cmp24.not.i = icmp eq i32 %1, 0
  br i1 %cmp24.not.i, label %_ZN7datalog12rule_manager2mkEPKNS_4ruleEP3appRK6symbol.exit, label %for.body.lr.ph.i

for.body.lr.ph.i:                                 ; preds = %_ZN11ast_manager7inc_refEP3ast.exit.i
  %m_tail.i = getelementptr inbounds i8, ptr %source, i64 80
  %m_tail9.i = getelementptr inbounds i8, ptr %call4.i, i64 80
  %wide.trip.count.i = zext i32 %1 to i64
  br label %for.body.i

for.body.i:                                       ; preds = %_ZN11ast_manager7inc_refEP3ast.exit23.i, %for.body.lr.ph.i
  %indvars.iv.i = phi i64 [ 0, %for.body.lr.ph.i ], [ %indvars.iv.next.i, %_ZN11ast_manager7inc_refEP3ast.exit23.i ]
  %arrayidx.i = getelementptr inbounds [0 x ptr], ptr %m_tail.i, i64 0, i64 %indvars.iv.i
  %9 = load ptr, ptr %arrayidx.i, align 8
  %arrayidx11.i = getelementptr inbounds [0 x ptr], ptr %m_tail9.i, i64 0, i64 %indvars.iv.i
  store ptr %9, ptr %arrayidx11.i, align 8
  %10 = ptrtoint ptr %9 to i64
  %and.i.i = and i64 %10, -8
  %tobool.not.i19.i = icmp eq i64 %and.i.i, 0
  br i1 %tobool.not.i19.i, label %_ZN11ast_manager7inc_refEP3ast.exit23.i, label %if.then.i20.i

if.then.i20.i:                                    ; preds = %for.body.i
  %11 = inttoptr i64 %and.i.i to ptr
  %m_ref_count.i.i21.i = getelementptr inbounds i8, ptr %11, i64 8
  %12 = load i32, ptr %m_ref_count.i.i21.i, align 8
  %inc.i.i22.i = add i32 %12, 1
  store i32 %inc.i.i22.i, ptr %m_ref_count.i.i21.i, align 8
  br label %_ZN11ast_manager7inc_refEP3ast.exit23.i

_ZN11ast_manager7inc_refEP3ast.exit23.i:          ; preds = %if.then.i20.i, %for.body.i
  %indvars.iv.next.i = add nuw nsw i64 %indvars.iv.i, 1
  %exitcond.not.i = icmp eq i64 %indvars.iv.next.i, %wide.trip.count.i
  br i1 %exitcond.not.i, label %_ZN7datalog12rule_manager2mkEPKNS_4ruleEP3appRK6symbol.exit, label %for.body.i, !llvm.loop !69

_ZN7datalog12rule_manager2mkEPKNS_4ruleEP3appRK6symbol.exit: ; preds = %_ZN11ast_manager7inc_refEP3ast.exit23.i, %_ZN11ast_manager7inc_refEP3ast.exit.i
  ret ptr %call4.i
}